; Function Attrs: mustprogress nounwind willreturn uwtable
define void @_ZN11duckdb_zstd17COVER_best_finishEPNS_12COVER_best_sENS_20ZDICT_cover_params_tENS_19COVER_dictSelectionE(ptr noundef captures(address_is_null) %0, ptr noundef readonly byval(%"struct.duckdb_zstd::ZDICT_cover_params_t") align 8 captures(none) %1, ptr noundef readonly byval(%"struct.duckdb_zstd::COVER_dictSelection") align 8 captures(none) %2) local_unnamed_addr #13 {
  %4 = load ptr, ptr %2, align 8, !tbaa !66
  %5 = getelementptr inbounds nuw i8, ptr %2, i64 16
  %6 = load i64, ptr %5, align 8, !tbaa !68
  %7 = getelementptr inbounds nuw i8, ptr %2, i64 8
  %8 = load i64, ptr %7, align 8, !tbaa !69
  %.not = icmp eq ptr %0, null
  br i1 %.not, label %32, label %9

9:                                                ; preds = %3
  %10 = getelementptr inbounds nuw i8, ptr %0, i64 8
  %11 = load i64, ptr %10, align 8, !tbaa !64
  %12 = add i64 %11, -1
  store i64 %12, ptr %10, align 8, !tbaa !64
  %13 = getelementptr inbounds nuw i8, ptr %0, i64 80
  %14 = load i64, ptr %13, align 8, !tbaa !62
  %15 = icmp ult i64 %6, %14
  br i1 %15, label %16, label %32

16:                                               ; preds = %9
  %17 = getelementptr inbounds nuw i8, ptr %0, i64 16
  %18 = load ptr, ptr %17, align 8, !tbaa !65
  %.not29 = icmp eq ptr %18, null
  br i1 %.not29, label %.thread, label %19

19:                                               ; preds = %16
  %20 = getelementptr inbounds nuw i8, ptr %0, i64 24
  %21 = load i64, ptr %20, align 8, !tbaa !70
  %22 = icmp ult i64 %21, %8
  br i1 %22, label %23, label %27

23:                                               ; preds = %19
  tail call void @free(ptr noundef nonnull %18) #25
  br label %.thread

.thread:                                          ; preds = %16, %23
  %24 = tail call noalias ptr @malloc(i64 noundef %8) #27
  store ptr %24, ptr %17, align 8, !tbaa !65
  %.not31 = icmp eq ptr %24, null
  br i1 %.not31, label %25, label %27

25:                                               ; preds = %.thread
  store i64 -1, ptr %13, align 8, !tbaa !62
  %26 = getelementptr inbounds nuw i8, ptr %0, i64 24
  store i64 0, ptr %26, align 8, !tbaa !70
  br label %32

27:                                               ; preds = %.thread, %19
  %28 = phi ptr [ %24, %.thread ], [ %18, %19 ]
  %.not32 = icmp eq ptr %4, null
  br i1 %.not32, label %32, label %29

29:                                               ; preds = %27
  tail call void @llvm.memcpy.p0.p0.i64(ptr nonnull align 1 %28, ptr nonnull align 1 %4, i64 %8, i1 false)
  %30 = getelementptr inbounds nuw i8, ptr %0, i64 24
  store i64 %8, ptr %30, align 8, !tbaa !70
  %31 = getelementptr inbounds nuw i8, ptr %0, i64 32
  call void @llvm.memcpy.p0.p0.i64(ptr noundef nonnull align 8 dereferenceable(48) %31, ptr noundef nonnull align 8 dereferenceable(48) %1, i64 48, i1 false), !tbaa.struct !71
  store i64 %6, ptr %13, align 8, !tbaa !62
  br label %32

32:                                               ; preds = %25, %27, %29, %9, %3
  ret void
}